; Function Attrs: mustprogress uwtable
define noundef i32 @_ZNK10open_spiel10algorithms10AFCCEState13CurrentPlayerEv(ptr nocapture noundef nonnull readonly align 8 dereferenceable(216) %0) unnamed_addr #3 align 2 {
  %2 = getelementptr inbounds nuw i8, ptr %0, i64 136
  %3 = load i32, ptr %2, align 8
  %4 = icmp slt i32 %3, 0
  br i1 %4, label %12, label %5

5:                                                ; preds = %1
  %6 = getelementptr inbounds nuw i8, ptr %0, i64 64
  %7 = load ptr, ptr %6, align 8
  %8 = load ptr, ptr %7, align 8
  %9 = getelementptr inbounds i8, ptr %8, i64 16
  %10 = load ptr, ptr %9, align 8
  %11 = tail call noundef i32 %10(ptr noundef nonnull align 8 dereferenceable(60) %7)
  br label %12

12:                                               ; preds = %1, %5
  %.0 = phi i32 [ %11, %5 ], [ -1, %1 ]
  ret i32 %.0
}